target datalayout = "e-m:e-p270:32:32-p271:32:32-p272:64:64-i64:64-i128:128-f80:128-n8:16:32:64-S128"
target triple = "x86_64-pc-linux-gnu"

%struct.mbedtls_dhm_context = type { %struct.mbedtls_mpi, %struct.mbedtls_mpi, %struct.mbedtls_mpi, %struct.mbedtls_mpi, %struct.mbedtls_mpi, %struct.mbedtls_mpi, %struct.mbedtls_mpi, %struct.mbedtls_mpi, %struct.mbedtls_mpi, %struct.mbedtls_mpi }
%struct.mbedtls_mpi = type { ptr, i16, i16 }

@.str = private unnamed_addr constant [117 x i8] c"generated/home/dtcxzyw/WorkSpace/Projects/compilers/llvm-opt-benchmark/bench/lief/bench_build/mbed_src/library/dhm.c\00", align 1

; Function Attrs: inlinehint nounwind uwtable
define internal i32 @mbedtls_error_add(i32 noundef %0, i32 noundef %1, ptr noundef %2, i32 noundef %3) #4 {
  %5 = alloca i32, align 4
  %6 = alloca i32, align 4
  %7 = alloca ptr, align 8
  %8 = alloca i32, align 4
  store i32 %0, ptr %5, align 4, !tbaa !8
  store i32 %1, ptr %6, align 4, !tbaa !8
  store ptr %2, ptr %7, align 8, !tbaa !15
  store i32 %3, ptr %8, align 4, !tbaa !8
  %9 = load i32, ptr %5, align 4, !tbaa !8
  %10 = load i32, ptr %6, align 4, !tbaa !8
  %11 = add nsw i32 %9, %10
  ret i32 %11
}

; Function Attrs: nounwind uwtable
define hidden i32 @mbedtls_dhm_make_params(ptr noundef %0, i32 noundef %1, ptr noundef %2, ptr noundef %3, ptr noundef %4, ptr noundef %5) #0 {
  %7 = alloca ptr, align 8
  %8 = alloca i32, align 4
  %9 = alloca ptr, align 8
  %10 = alloca ptr, align 8
  %11 = alloca ptr, align 8
  %12 = alloca ptr, align 8
  %13 = alloca i32, align 4
  %14 = alloca i64, align 8
  %15 = alloca i64, align 8
  %16 = alloca i64, align 8
  %17 = alloca ptr, align 8
  store ptr %0, ptr %7, align 8, !tbaa !3
  store i32 %1, ptr %8, align 4, !tbaa !8
  store ptr %2, ptr %9, align 8, !tbaa !15
  store ptr %3, ptr %10, align 8, !tbaa !17
  store ptr %4, ptr %11, align 8, !tbaa !19
  store ptr %5, ptr %12, align 8, !tbaa !19
  call void @llvm.lifetime.start.p0(i64 4, ptr %13) #10
  call void @llvm.lifetime.start.p0(i64 8, ptr %14) #10
  call void @llvm.lifetime.start.p0(i64 8, ptr %15) #10
  call void @llvm.lifetime.start.p0(i64 8, ptr %16) #10
  call void @llvm.lifetime.start.p0(i64 8, ptr %17) #10
  %18 = load ptr, ptr %7, align 8, !tbaa !3
  %19 = load i32, ptr %8, align 4, !tbaa !8
  %20 = load ptr, ptr %11, align 8, !tbaa !19
  %21 = load ptr, ptr %12, align 8, !tbaa !19
  %22 = call i32 @dhm_make_common(ptr noundef %18, i32 noundef %19, ptr noundef %20, ptr noundef %21)
  store i32 %22, ptr %13, align 4, !tbaa !8
  %23 = load i32, ptr %13, align 4, !tbaa !8
  %24 = icmp ne i32 %23, 0
  br i1 %24, label %25, label %26

25:                                               ; preds = %6
  br label %130

26:                                               ; preds = %6
  %27 = load ptr, ptr %7, align 8, !tbaa !3
  %28 = getelementptr inbounds nuw %struct.mbedtls_dhm_context, ptr %27, i32 0, i32 0
  %29 = call i64 @mbedtls_mpi_size(ptr noundef %28)
  store i64 %29, ptr %14, align 8, !tbaa !20
  %30 = load ptr, ptr %7, align 8, !tbaa !3
  %31 = getelementptr inbounds nuw %struct.mbedtls_dhm_context, ptr %30, i32 0, i32 1
  %32 = call i64 @mbedtls_mpi_size(ptr noundef %31)
  store i64 %32, ptr %15, align 8, !tbaa !20
  %33 = load ptr, ptr %7, align 8, !tbaa !3
  %34 = getelementptr inbounds nuw %struct.mbedtls_dhm_context, ptr %33, i32 0, i32 3
  %35 = call i64 @mbedtls_mpi_size(ptr noundef %34)
  store i64 %35, ptr %16, align 8, !tbaa !20
  %36 = load ptr, ptr %9, align 8, !tbaa !15
  store ptr %36, ptr %17, align 8, !tbaa !15
  br label %37

37:                                               ; preds = %26
  br label %38

38:                                               ; preds = %37
  %39 = load ptr, ptr %7, align 8, !tbaa !3
  %40 = getelementptr inbounds nuw %struct.mbedtls_dhm_context, ptr %39, i32 0, i32 0
  %41 = load ptr, ptr %17, align 8, !tbaa !15
  %42 = getelementptr inbounds i8, ptr %41, i64 2
  %43 = load i64, ptr %14, align 8, !tbaa !20
  %44 = call i32 @mbedtls_mpi_write_binary(ptr noundef %40, ptr noundef %42, i64 noundef %43)
  store i32 %44, ptr %13, align 4, !tbaa !8
  %45 = icmp ne i32 %44, 0
  br i1 %45, label %46, label %47

46:                                               ; preds = %38
  br label %130

47:                                               ; preds = %38
  br label %48

48:                                               ; preds = %47
  br label %49

49:                                               ; preds = %48
  %50 = load i64, ptr %14, align 8, !tbaa !20
  %51 = lshr i64 %50, 8
  %52 = and i64 %51, 255
  %53 = trunc i64 %52 to i8
  %54 = load ptr, ptr %17, align 8, !tbaa !15
  %55 = getelementptr inbounds nuw i8, ptr %54, i32 1
  store ptr %55, ptr %17, align 8, !tbaa !15
  store i8 %53, ptr %54, align 1, !tbaa !22
  %56 = load i64, ptr %14, align 8, !tbaa !20
  %57 = and i64 %56, 255
  %58 = trunc i64 %57 to i8
  %59 = load ptr, ptr %17, align 8, !tbaa !15
  %60 = getelementptr inbounds nuw i8, ptr %59, i32 1
  store ptr %60, ptr %17, align 8, !tbaa !15
  store i8 %58, ptr %59, align 1, !tbaa !22
  %61 = load i64, ptr %14, align 8, !tbaa !20
  %62 = load ptr, ptr %17, align 8, !tbaa !15
  %63 = getelementptr inbounds nuw i8, ptr %62, i64 %61
  store ptr %63, ptr %17, align 8, !tbaa !15
  br label %64

64:                                               ; preds = %49
  br label %65

65:                                               ; preds = %64
  br label %66

66:                                               ; preds = %65
  br label %67

67:                                               ; preds = %66
  %68 = load ptr, ptr %7, align 8, !tbaa !3
  %69 = getelementptr inbounds nuw %struct.mbedtls_dhm_context, ptr %68, i32 0, i32 1
  %70 = load ptr, ptr %17, align 8, !tbaa !15
  %71 = getelementptr inbounds i8, ptr %70, i64 2
  %72 = load i64, ptr %15, align 8, !tbaa !20
  %73 = call i32 @mbedtls_mpi_write_binary(ptr noundef %69, ptr noundef %71, i64 noundef %72)
  store i32 %73, ptr %13, align 4, !tbaa !8
  %74 = icmp ne i32 %73, 0
  br i1 %74, label %75, label %76

75:                                               ; preds = %67
  br label %130

76:                                               ; preds = %67
  br label %77

77:                                               ; preds = %76
  br label %78

78:                                               ; preds = %77
  %79 = load i64, ptr %15, align 8, !tbaa !20
  %80 = lshr i64 %79, 8
  %81 = and i64 %80, 255
  %82 = trunc i64 %81 to i8
  %83 = load ptr, ptr %17, align 8, !tbaa !15
  %84 = getelementptr inbounds nuw i8, ptr %83, i32 1
  store ptr %84, ptr %17, align 8, !tbaa !15
  store i8 %82, ptr %83, align 1, !tbaa !22
  %85 = load i64, ptr %15, align 8, !tbaa !20
  %86 = and i64 %85, 255
  %87 = trunc i64 %86 to i8
  %88 = load ptr, ptr %17, align 8, !tbaa !15
  %89 = getelementptr inbounds nuw i8, ptr %88, i32 1
  store ptr %89, ptr %17, align 8, !tbaa !15
  store i8 %87, ptr %88, align 1, !tbaa !22
  %90 = load i64, ptr %15, align 8, !tbaa !20
  %91 = load ptr, ptr %17, align 8, !tbaa !15
  %92 = getelementptr inbounds nuw i8, ptr %91, i64 %90
  store ptr %92, ptr %17, align 8, !tbaa !15
  br label %93

93:                                               ; preds = %78
  br label %94

94:                                               ; preds = %93
  br label %95

95:                                               ; preds = %94
  br label %96

96:                                               ; preds = %95
  %97 = load ptr, ptr %7, align 8, !tbaa !3
  %98 = getelementptr inbounds nuw %struct.mbedtls_dhm_context, ptr %97, i32 0, i32 3
  %99 = load ptr, ptr %17, align 8, !tbaa !15
  %100 = getelementptr inbounds i8, ptr %99, i64 2
  %101 = load i64, ptr %16, align 8, !tbaa !20
  %102 = call i32 @mbedtls_mpi_write_binary(ptr noundef %98, ptr noundef %100, i64 noundef %101)
  store i32 %102, ptr %13, align 4, !tbaa !8
  %103 = icmp ne i32 %102, 0
  br i1 %103, label %104, label %105

104:                                              ; preds = %96
  br label %130

105:                                              ; preds = %96
  br label %106

106:                                              ; preds = %105
  br label %107

107:                                              ; preds = %106
  %108 = load i64, ptr %16, align 8, !tbaa !20
  %109 = lshr i64 %108, 8
  %110 = and i64 %109, 255
  %111 = trunc i64 %110 to i8
  %112 = load ptr, ptr %17, align 8, !tbaa !15
  %113 = getelementptr inbounds nuw i8, ptr %112, i32 1
  store ptr %113, ptr %17, align 8, !tbaa !15
  store i8 %111, ptr %112, align 1, !tbaa !22
  %114 = load i64, ptr %16, align 8, !tbaa !20
  %115 = and i64 %114, 255
  %116 = trunc i64 %115 to i8
  %117 = load ptr, ptr %17, align 8, !tbaa !15
  %118 = getelementptr inbounds nuw i8, ptr %117, i32 1
  store ptr %118, ptr %17, align 8, !tbaa !15
  store i8 %116, ptr %117, align 1, !tbaa !22
  %119 = load i64, ptr %16, align 8, !tbaa !20
  %120 = load ptr, ptr %17, align 8, !tbaa !15
  %121 = getelementptr inbounds nuw i8, ptr %120, i64 %119
  store ptr %121, ptr %17, align 8, !tbaa !15
  br label %122

122:                                              ; preds = %107
  br label %123

123:                                              ; preds = %122
  %124 = load ptr, ptr %17, align 8, !tbaa !15
  %125 = load ptr, ptr %9, align 8, !tbaa !15
  %126 = ptrtoint ptr %124 to i64
  %127 = ptrtoint ptr %125 to i64
  %128 = sub i64 %126, %127
  %129 = load ptr, ptr %10, align 8, !tbaa !17
  store i64 %128, ptr %129, align 8, !tbaa !20
  br label %130

130:                                              ; preds = %123, %104, %75, %46, %25
  %131 = load i32, ptr %13, align 4, !tbaa !8
  %132 = icmp ne i32 %131, 0
  br i1 %132, label %133, label %139

133:                                              ; preds = %130
  %134 = load i32, ptr %13, align 4, !tbaa !8
  %135 = icmp sgt i32 %134, -128
  br i1 %135, label %136, label %139

136:                                              ; preds = %133
  %137 = load i32, ptr %13, align 4, !tbaa !8
  %138 = call i32 @mbedtls_error_add(i32 noundef -12672, i32 noundef %137, ptr noundef @.str, i32 noundef 264)
  store i32 %138, ptr %13, align 4, !tbaa !8
  br label %139

139:                                              ; preds = %136, %133, %130
  %140 = load i32, ptr %13, align 4, !tbaa !8
  call void @llvm.lifetime.end.p0(i64 8, ptr %17) #10
  call void @llvm.lifetime.end.p0(i64 8, ptr %16) #10
  call void @llvm.lifetime.end.p0(i64 8, ptr %15) #10
  call void @llvm.lifetime.end.p0(i64 8, ptr %14) #10
  call void @llvm.lifetime.end.p0(i64 4, ptr %13) #10
  ret i32 %140
}